target datalayout = "e-m:e-p270:32:32-p271:32:32-p272:64:64-i64:64-i128:128-f80:128-n8:16:32:64-S128"
target triple = "x86_64-pc-linux-gnu"

%struct.AVFormatContext = type { ptr, ptr, ptr, ptr, ptr, i32, i32, ptr, i32, ptr, i32, ptr, ptr, i64, i64, i64, i32, i32, i32, i64, i64, ptr, i32, i32, ptr, i32, i32, i32, i32, ptr, i64, i32, i32, %struct.AVIOInterruptCB, i32, i32, i32, i32, i64, i32, i32, i32, i32, i32, i32, i32, i32, i32, i32, i32, i32, i64, i32, i32, i32, i32, i32, ptr, ptr, ptr, ptr, i32, ptr, ptr, ptr, ptr, i32, ptr, ptr, i64, ptr, ptr, ptr, i64 }
%struct.AVIOInterruptCB = type { ptr, ptr }
%struct.ASFContext = type { i32, i32, i32, i64, i64, i32, i64, i32, i32, i32, i64, i64, i64, i64, i64, i64, i32, [128 x ptr], [128 x %struct.ASFStreamData], i32, i32, i64, i64, i8, i32, i64, i32, i32, i64, i32, i16, i64, i32, i32 }
%struct.ASFStreamData = type { [32 x i8], ptr, %struct.AVRational }
%struct.AVRational = type { i32, i32 }

@.str.65 = private unnamed_addr constant [13 x i8] c"AspectRatioX\00", align 1
@.str.66 = private unnamed_addr constant [13 x i8] c"AspectRatioY\00", align 1

; Function Attrs: alwaysinline nounwind uwtable
define internal i64 @avio_tell(ptr noundef %0) #1 {
  %2 = alloca ptr, align 8
  store ptr %0, ptr %2, align 8, !tbaa !33
  %3 = load ptr, ptr %2, align 8, !tbaa !33
  %4 = call i64 @avio_seek(ptr noundef %3, i64 noundef 0, i32 noundef 1)
  ret i64 %4
}

; Function Attrs: nounwind uwtable
define internal i32 @asf_read_generic_value(ptr noundef %0, i32 noundef %1, ptr noundef %2) #0 {
  %4 = alloca i32, align 4
  %5 = alloca ptr, align 8
  %6 = alloca i32, align 4
  %7 = alloca ptr, align 8
  store ptr %0, ptr %5, align 8, !tbaa !33
  store i32 %1, ptr %6, align 4, !tbaa !42
  store ptr %2, ptr %7, align 8, !tbaa !122
  %8 = load i32, ptr %6, align 4, !tbaa !42
  switch i32 %8, label %28 [
    i32 2, label %9
    i32 3, label %14
    i32 4, label %19
    i32 5, label %23
  ]

9:                                                ; preds = %3
  %10 = load ptr, ptr %5, align 8, !tbaa !33
  %11 = call i32 @avio_rl16(ptr noundef %10)
  %12 = zext i32 %11 to i64
  %13 = load ptr, ptr %7, align 8, !tbaa !122
  store i64 %12, ptr %13, align 8, !tbaa !47
  br label %29

14:                                               ; preds = %3
  %15 = load ptr, ptr %5, align 8, !tbaa !33
  %16 = call i32 @avio_rl32(ptr noundef %15)
  %17 = zext i32 %16 to i64
  %18 = load ptr, ptr %7, align 8, !tbaa !122
  store i64 %17, ptr %18, align 8, !tbaa !47
  br label %29

19:                                               ; preds = %3
  %20 = load ptr, ptr %5, align 8, !tbaa !33
  %21 = call i64 @avio_rl64(ptr noundef %20)
  %22 = load ptr, ptr %7, align 8, !tbaa !122
  store i64 %21, ptr %22, align 8, !tbaa !47
  br label %29

23:                                               ; preds = %3
  %24 = load ptr, ptr %5, align 8, !tbaa !33
  %25 = call i32 @avio_rl16(ptr noundef %24)
  %26 = zext i32 %25 to i64
  %27 = load ptr, ptr %7, align 8, !tbaa !122
  store i64 %26, ptr %27, align 8, !tbaa !47
  br label %29

28:                                               ; preds = %3
  store i32 -1094995529, ptr %4, align 4
  br label %30

29:                                               ; preds = %23, %19, %14, %9
  store i32 0, ptr %4, align 4
  br label %30

30:                                               ; preds = %29, %28
  %31 = load i32, ptr %4, align 4
  ret i32 %31
}

; Function Attrs: nounwind uwtable
define internal void @align_position(ptr noundef %0, i64 noundef %1, i64 noundef %2) #0 {
  %4 = alloca ptr, align 8
  %5 = alloca i64, align 8
  %6 = alloca i64, align 8
  store ptr %0, ptr %4, align 8, !tbaa !33
  store i64 %1, ptr %5, align 8, !tbaa !47
  store i64 %2, ptr %6, align 8, !tbaa !47
  %7 = load i64, ptr %6, align 8, !tbaa !47
  %8 = load i64, ptr %5, align 8, !tbaa !47
  %9 = sub nsw i64 9223372036854775807, %8
  %10 = icmp ult i64 %7, %9
  br i1 %10, label %11, label %24

11:                                               ; preds = %3
  %12 = load ptr, ptr %4, align 8, !tbaa !33
  %13 = call i64 @avio_tell(ptr noundef %12)
  %14 = load i64, ptr %5, align 8, !tbaa !47
  %15 = load i64, ptr %6, align 8, !tbaa !47
  %16 = add i64 %14, %15
  %17 = icmp ne i64 %13, %16
  br i1 %17, label %18, label %24

18:                                               ; preds = %11
  %19 = load ptr, ptr %4, align 8, !tbaa !33
  %20 = load i64, ptr %5, align 8, !tbaa !47
  %21 = load i64, ptr %6, align 8, !tbaa !47
  %22 = add i64 %20, %21
  %23 = call i64 @avio_seek(ptr noundef %19, i64 noundef %22, i32 noundef 0)
  br label %24

24:                                               ; preds = %18, %11, %3
  ret void
}

; Function Attrs: nounwind uwtable
define internal i32 @asf_store_aspect_ratio(ptr noundef %0, i8 noundef zeroext %1, ptr noundef %2, i32 noundef %3) #0 {
  %5 = alloca i32, align 4
  %6 = alloca ptr, align 8
  %7 = alloca i8, align 1
  %8 = alloca ptr, align 8
  %9 = alloca i32, align 4
  %10 = alloca ptr, align 8
  %11 = alloca ptr, align 8
  %12 = alloca i64, align 8
  %13 = alloca i32, align 4
  %14 = alloca i32, align 4
  store ptr %0, ptr %6, align 8, !tbaa !13
  store i8 %1, ptr %7, align 1, !tbaa !131
  store ptr %2, ptr %8, align 8, !tbaa !59
  store i32 %3, ptr %9, align 4, !tbaa !42
  call void @llvm.lifetime.start.p0(i64 8, ptr %10) #10
  %15 = load ptr, ptr %6, align 8, !tbaa !13
  %16 = getelementptr inbounds nuw %struct.AVFormatContext, ptr %15, i32 0, i32 3
  %17 = load ptr, ptr %16, align 8, !tbaa !15
  store ptr %17, ptr %10, align 8, !tbaa !30
  call void @llvm.lifetime.start.p0(i64 8, ptr %11) #10
  %18 = load ptr, ptr %6, align 8, !tbaa !13
  %19 = getelementptr inbounds nuw %struct.AVFormatContext, ptr %18, i32 0, i32 4
  %20 = load ptr, ptr %19, align 8, !tbaa !32
  store ptr %20, ptr %11, align 8, !tbaa !33
  call void @llvm.lifetime.start.p0(i64 8, ptr %12) #10
  store i64 0, ptr %12, align 8, !tbaa !47
  call void @llvm.lifetime.start.p0(i64 4, ptr %13) #10
  %21 = load ptr, ptr %11, align 8, !tbaa !33
  %22 = load i32, ptr %9, align 4, !tbaa !42
  %23 = call i32 @asf_read_generic_value(ptr noundef %21, i32 noundef %22, ptr noundef %12)
  store i32 %23, ptr %13, align 4, !tbaa !42
  %24 = load i32, ptr %13, align 4, !tbaa !42
  %25 = icmp slt i32 %24, 0
  br i1 %25, label %26, label %28

26:                                               ; preds = %4
  %27 = load i32, ptr %13, align 4, !tbaa !42
  store i32 %27, ptr %5, align 4
  store i32 1, ptr %14, align 4
  br label %58

28:                                               ; preds = %4
  %29 = load i8, ptr %7, align 1, !tbaa !131
  %30 = zext i8 %29 to i32
  %31 = icmp slt i32 %30, 128
  br i1 %31, label %32, label %57

32:                                               ; preds = %28
  %33 = load ptr, ptr %8, align 8, !tbaa !59
  %34 = call i32 @strcmp(ptr noundef %33, ptr noundef @.str.65) #12
  %35 = icmp ne i32 %34, 0
  br i1 %35, label %46, label %36

36:                                               ; preds = %32
  %37 = load i64, ptr %12, align 8, !tbaa !47
  %38 = trunc i64 %37 to i32
  %39 = load ptr, ptr %10, align 8, !tbaa !30
  %40 = getelementptr inbounds nuw %struct.ASFContext, ptr %39, i32 0, i32 18
  %41 = load i8, ptr %7, align 1, !tbaa !131
  %42 = zext i8 %41 to i64
  %43 = getelementptr inbounds nuw [128 x %struct.ASFStreamData], ptr %40, i64 0, i64 %42
  %44 = getelementptr inbounds nuw %struct.ASFStreamData, ptr %43, i32 0, i32 2
  %45 = getelementptr inbounds nuw %struct.AVRational, ptr %44, i32 0, i32 0
  store i32 %38, ptr %45, align 8, !tbaa !69
  br label %56

46:                                               ; preds = %32
  %47 = load i64, ptr %12, align 8, !tbaa !47
  %48 = trunc i64 %47 to i32
  %49 = load ptr, ptr %10, align 8, !tbaa !30
  %50 = getelementptr inbounds nuw %struct.ASFContext, ptr %49, i32 0, i32 18
  %51 = load i8, ptr %7, align 1, !tbaa !131
  %52 = zext i8 %51 to i64
  %53 = getelementptr inbounds nuw [128 x %struct.ASFStreamData], ptr %50, i64 0, i64 %52
  %54 = getelementptr inbounds nuw %struct.ASFStreamData, ptr %53, i32 0, i32 2
  %55 = getelementptr inbounds nuw %struct.AVRational, ptr %54, i32 0, i32 1
  store i32 %48, ptr %55, align 4, !tbaa !70
  br label %56

56:                                               ; preds = %46, %36
  br label %57

57:                                               ; preds = %56, %28
  store i32 0, ptr %5, align 4
  store i32 1, ptr %14, align 4
  br label %58

58:                                               ; preds = %57, %26
  call void @llvm.lifetime.end.p0(i64 4, ptr %13) #10
  call void @llvm.lifetime.end.p0(i64 8, ptr %12) #10
  call void @llvm.lifetime.end.p0(i64 8, ptr %11) #10
  call void @llvm.lifetime.end.p0(i64 8, ptr %10) #10
  %59 = load i32, ptr %5, align 4
  ret i32 %59
}

; Function Attrs: nounwind uwtable
define internal i32 @asf_read_metadata_obj(ptr noundef %0, ptr noundef %1) #0 {
  %3 = alloca i32, align 4
  %4 = alloca ptr, align 8
  %5 = alloca ptr, align 8
  %6 = alloca ptr, align 8
  %7 = alloca ptr, align 8
  %8 = alloca i64, align 8
  %9 = alloca i16, align 2
  %10 = alloca i32, align 4
  %11 = alloca i32, align 4
  %12 = alloca i16, align 2
  %13 = alloca i16, align 2
  %14 = alloca i16, align 2
  %15 = alloca i16, align 2
  %16 = alloca i16, align 2
  %17 = alloca ptr, align 8
  %18 = alloca i32, align 4
  store ptr %0, ptr %4, align 8, !tbaa !13
  store ptr %1, ptr %5, align 8, !tbaa !34
  call void @llvm.lifetime.start.p0(i64 8, ptr %6) #10
  %19 = load ptr, ptr %4, align 8, !tbaa !13
  %20 = getelementptr inbounds nuw %struct.AVFormatContext, ptr %19, i32 0, i32 3
  %21 = load ptr, ptr %20, align 8, !tbaa !15
  store ptr %21, ptr %6, align 8, !tbaa !30
  call void @llvm.lifetime.start.p0(i64 8, ptr %7) #10
  %22 = load ptr, ptr %4, align 8, !tbaa !13
  %23 = getelementptr inbounds nuw %struct.AVFormatContext, ptr %22, i32 0, i32 4
  %24 = load ptr, ptr %23, align 8, !tbaa !32
  store ptr %24, ptr %7, align 8, !tbaa !33
  call void @llvm.lifetime.start.p0(i64 8, ptr %8) #10
  %25 = load ptr, ptr %7, align 8, !tbaa !33
  %26 = call i64 @avio_rl64(ptr noundef %25)
  store i64 %26, ptr %8, align 8, !tbaa !47
  call void @llvm.lifetime.start.p0(i64 2, ptr %9) #10
  %27 = load ptr, ptr %7, align 8, !tbaa !33
  %28 = call i32 @avio_rl16(ptr noundef %27)
  %29 = trunc i32 %28 to i16
  store i16 %29, ptr %9, align 2, !tbaa !132
  call void @llvm.lifetime.start.p0(i64 4, ptr %10) #10
  call void @llvm.lifetime.start.p0(i64 4, ptr %11) #10
  store i32 0, ptr %10, align 4, !tbaa !42
  br label %30

30:                                               ; preds = %126, %2
  %31 = load i32, ptr %10, align 4, !tbaa !42
  %32 = load i16, ptr %9, align 2, !tbaa !132
  %33 = zext i16 %32 to i32
  %34 = icmp slt i32 %31, %33
  br i1 %34, label %35, label %129

35:                                               ; preds = %30
  call void @llvm.lifetime.start.p0(i64 2, ptr %12) #10
  call void @llvm.lifetime.start.p0(i64 2, ptr %13) #10
  call void @llvm.lifetime.start.p0(i64 2, ptr %14) #10
  call void @llvm.lifetime.start.p0(i64 2, ptr %15) #10
  call void @llvm.lifetime.start.p0(i64 2, ptr %16) #10
  call void @llvm.lifetime.start.p0(i64 8, ptr %17) #10
  store ptr null, ptr %17, align 8, !tbaa !59
  %36 = load ptr, ptr %7, align 8, !tbaa !33
  %37 = call i64 @avio_skip(ptr noundef %36, i64 noundef 2)
  %38 = load ptr, ptr %7, align 8, !tbaa !33
  %39 = call i32 @avio_rl16(ptr noundef %38)
  %40 = trunc i32 %39 to i16
  store i16 %40, ptr %16, align 2, !tbaa !132
  %41 = load ptr, ptr %7, align 8, !tbaa !33
  %42 = call i32 @avio_rl16(ptr noundef %41)
  %43 = trunc i32 %42 to i16
  store i16 %43, ptr %12, align 2, !tbaa !132
  %44 = load i16, ptr %12, align 2, !tbaa !132
  %45 = zext i16 %44 to i32
  %46 = mul nsw i32 2, %45
  %47 = add nsw i32 %46, 1
  %48 = trunc i32 %47 to i16
  store i16 %48, ptr %13, align 2, !tbaa !132
  %49 = load i16, ptr %12, align 2, !tbaa !132
  %50 = icmp ne i16 %49, 0
  br i1 %50, label %52, label %51

51:                                               ; preds = %35
  store i32 2, ptr %18, align 4
  br label %123

52:                                               ; preds = %35
  %53 = load ptr, ptr %7, align 8, !tbaa !33
  %54 = call i32 @avio_rl16(ptr noundef %53)
  %55 = trunc i32 %54 to i16
  store i16 %55, ptr %14, align 2, !tbaa !132
  %56 = load ptr, ptr %7, align 8, !tbaa !33
  %57 = call i32 @avio_rl32(ptr noundef %56)
  %58 = trunc i32 %57 to i16
  store i16 %58, ptr %15, align 2, !tbaa !132
  %59 = load i16, ptr %13, align 2, !tbaa !132
  %60 = zext i16 %59 to i64
  %61 = call noalias ptr @av_malloc(i64 noundef %60)
  store ptr %61, ptr %17, align 8, !tbaa !59
  %62 = load ptr, ptr %17, align 8, !tbaa !59
  %63 = icmp ne ptr %62, null
  br i1 %63, label %65, label %64

64:                                               ; preds = %52
  store i32 -12, ptr %3, align 4
  store i32 1, ptr %18, align 4
  br label %123

65:                                               ; preds = %52
  %66 = load ptr, ptr %7, align 8, !tbaa !33
  %67 = load i16, ptr %12, align 2, !tbaa !132
  %68 = zext i16 %67 to i32
  %69 = load ptr, ptr %17, align 8, !tbaa !59
  %70 = load i16, ptr %13, align 2, !tbaa !132
  %71 = zext i16 %70 to i32
  %72 = call i32 @avio_get_str16le(ptr noundef %66, i32 noundef %68, ptr noundef %69, i32 noundef %71)
  %73 = load ptr, ptr %17, align 8, !tbaa !59
  %74 = call i32 @strcmp(ptr noundef %73, ptr noundef @.str.65) #12
  %75 = icmp ne i32 %74, 0
  br i1 %75, label %76, label %80

76:                                               ; preds = %65
  %77 = load ptr, ptr %17, align 8, !tbaa !59
  %78 = call i32 @strcmp(ptr noundef %77, ptr noundef @.str.66) #12
  %79 = icmp ne i32 %78, 0
  br i1 %79, label %92, label %80

80:                                               ; preds = %76, %65
  %81 = load ptr, ptr %4, align 8, !tbaa !13
  %82 = load i16, ptr %16, align 2, !tbaa !132
  %83 = trunc i16 %82 to i8
  %84 = load ptr, ptr %17, align 8, !tbaa !59
  %85 = load i16, ptr %14, align 2, !tbaa !132
  %86 = zext i16 %85 to i32
  %87 = call i32 @asf_store_aspect_ratio(ptr noundef %81, i8 noundef zeroext %83, ptr noundef %84, i32 noundef %86)
  store i32 %87, ptr %11, align 4, !tbaa !42
  %88 = load i32, ptr %11, align 4, !tbaa !42
  %89 = icmp slt i32 %88, 0
  br i1 %89, label %90, label %91

90:                                               ; preds = %80
  call void @av_freep(ptr noundef %17)
  store i32 2, ptr %18, align 4
  br label %123

91:                                               ; preds = %80
  br label %122

92:                                               ; preds = %76
  %93 = load i16, ptr %16, align 2, !tbaa !132
  %94 = zext i16 %93 to i32
  %95 = icmp slt i32 %94, 128
  br i1 %95, label %96, label %121

96:                                               ; preds = %92
  %97 = load ptr, ptr %4, align 8, !tbaa !13
  %98 = load ptr, ptr %17, align 8, !tbaa !59
  %99 = load i16, ptr %12, align 2, !tbaa !132
  %100 = load i16, ptr %15, align 2, !tbaa !132
  %101 = load i16, ptr %14, align 2, !tbaa !132
  %102 = load i16, ptr %16, align 2, !tbaa !132
  %103 = zext i16 %102 to i32
  %104 = icmp ne i32 %103, 0
  br i1 %104, label %105, label %112

105:                                              ; preds = %96
  %106 = load ptr, ptr %6, align 8, !tbaa !30
  %107 = getelementptr inbounds nuw %struct.ASFContext, ptr %106, i32 0, i32 18
  %108 = load i16, ptr %16, align 2, !tbaa !132
  %109 = zext i16 %108 to i64
  %110 = getelementptr inbounds nuw [128 x %struct.ASFStreamData], ptr %107, i64 0, i64 %109
  %111 = getelementptr inbounds nuw %struct.ASFStreamData, ptr %110, i32 0, i32 1
  br label %115

112:                                              ; preds = %96
  %113 = load ptr, ptr %4, align 8, !tbaa !13
  %114 = getelementptr inbounds nuw %struct.AVFormatContext, ptr %113, i32 0, i32 29
  br label %115

115:                                              ; preds = %112, %105
  %116 = phi ptr [ %111, %105 ], [ %114, %112 ]
  %117 = call i32 @process_metadata(ptr noundef %97, ptr noundef %98, i16 noundef zeroext %99, i16 noundef zeroext %100, i16 noundef zeroext %101, ptr noundef %116)
  store i32 %117, ptr %11, align 4, !tbaa !42
  %118 = icmp slt i32 %117, 0
  br i1 %118, label %119, label %120

119:                                              ; preds = %115
  call void @av_freep(ptr noundef %17)
  store i32 2, ptr %18, align 4
  br label %123

120:                                              ; preds = %115
  br label %121

121:                                              ; preds = %120, %92
  br label %122

122:                                              ; preds = %121, %91
  call void @av_freep(ptr noundef %17)
  store i32 0, ptr %18, align 4
  br label %123

123:                                              ; preds = %122, %119, %90, %64, %51
  call void @llvm.lifetime.end.p0(i64 8, ptr %17) #10
  call void @llvm.lifetime.end.p0(i64 2, ptr %16) #10
  call void @llvm.lifetime.end.p0(i64 2, ptr %15) #10
  call void @llvm.lifetime.end.p0(i64 2, ptr %14) #10
  call void @llvm.lifetime.end.p0(i64 2, ptr %13) #10
  call void @llvm.lifetime.end.p0(i64 2, ptr %12) #10
  %124 = load i32, ptr %18, align 4
  switch i32 %124, label %135 [
    i32 0, label %125
    i32 2, label %129
  ]

125:                                              ; preds = %123
  br label %126

126:                                              ; preds = %125
  %127 = load i32, ptr %10, align 4, !tbaa !42
  %128 = add nsw i32 %127, 1
  store i32 %128, ptr %10, align 4, !tbaa !42
  br label %30, !llvm.loop !175

129:                                              ; preds = %123, %30
  %130 = load ptr, ptr %7, align 8, !tbaa !33
  %131 = load ptr, ptr %6, align 8, !tbaa !30
  %132 = getelementptr inbounds nuw %struct.ASFContext, ptr %131, i32 0, i32 12
  %133 = load i64, ptr %132, align 8, !tbaa !41
  %134 = load i64, ptr %8, align 8, !tbaa !47
  call void @align_position(ptr noundef %130, i64 noundef %133, i64 noundef %134)
  store i32 0, ptr %3, align 4
  store i32 1, ptr %18, align 4
  br label %135

135:                                              ; preds = %129, %123
  call void @llvm.lifetime.end.p0(i64 4, ptr %11) #10
  call void @llvm.lifetime.end.p0(i64 4, ptr %10) #10
  call void @llvm.lifetime.end.p0(i64 2, ptr %9) #10
  call void @llvm.lifetime.end.p0(i64 8, ptr %8) #10
  call void @llvm.lifetime.end.p0(i64 8, ptr %7) #10
  call void @llvm.lifetime.end.p0(i64 8, ptr %6) #10
  %136 = load i32, ptr %3, align 4
  ret i32 %136
}