; Function Attrs: nounwind uwtable
define internal range(i32 -12, 1) i32 @asf_read_metadata_obj(ptr noundef %0, ptr readnone captures(none) %1) #1 {
  %3 = alloca ptr, align 8
  %4 = getelementptr inbounds nuw i8, ptr %0, i64 24
  %5 = load ptr, ptr %4, align 8, !tbaa !11
  %6 = getelementptr inbounds nuw i8, ptr %0, i64 32
  %7 = load ptr, ptr %6, align 8, !tbaa !26
  %8 = tail call i64 @avio_rl64(ptr noundef %7) #12
  %9 = tail call i32 @avio_rl16(ptr noundef %7) #12
  %10 = and i32 %9, 65535
  %.not53 = icmp eq i32 %10, 0
  br i1 %.not53, label %.loopexit, label %.lr.ph

.lr.ph:                                           ; preds = %2
  %invariant.gep = getelementptr inbounds nuw i8, ptr %5, i64 1176
  %11 = getelementptr inbounds nuw i8, ptr %0, i64 192
  br label %12

12:                                               ; preds = %.lr.ph, %asf_store_aspect_ratio.exit.thread
  %.03652 = phi i32 [ 0, %.lr.ph ], [ %62, %asf_store_aspect_ratio.exit.thread ]
  call void @llvm.lifetime.start.p0(i64 8, ptr nonnull %3) #12
  store ptr null, ptr %3, align 8, !tbaa !146
  %13 = call i64 @avio_skip(ptr noundef %7, i64 noundef 2) #12
  %14 = call i32 @avio_rl16(ptr noundef %7) #12
  %15 = call i32 @avio_rl16(ptr noundef %7) #12
  %16 = trunc i32 %15 to i16
  %17 = and i32 %15, 65535
  %18 = shl i16 %16, 1
  %19 = or disjoint i16 %18, 1
  %.not = icmp eq i16 %16, 0
  br i1 %.not, label %.thread, label %20

20:                                               ; preds = %12
  %21 = call i32 @avio_rl16(ptr noundef %7) #12
  %22 = trunc i32 %21 to i16
  %23 = call i32 @avio_rl32(ptr noundef %7) #12
  %24 = trunc i32 %23 to i16
  %25 = zext i16 %19 to i64
  %26 = call noalias ptr @av_malloc(i64 noundef %25) #12
  store ptr %26, ptr %3, align 8, !tbaa !146
  %.not40 = icmp eq ptr %26, null
  br i1 %.not40, label %.thread49, label %27

.thread49:                                        ; preds = %20
  call void @llvm.lifetime.end.p0(i64 8, ptr nonnull %3) #12
  br label %align_position.exit

27:                                               ; preds = %20
  %28 = zext i16 %19 to i32
  %29 = call i32 @avio_get_str16le(ptr noundef %7, i32 noundef %17, ptr noundef nonnull %26, i32 noundef %28) #12
  %30 = load ptr, ptr %3, align 8, !tbaa !146
  %31 = call i32 @strcmp(ptr noundef nonnull dereferenceable(1) %30, ptr noundef nonnull dereferenceable(13) @.str.65) #13
  %.not41 = icmp eq i32 %31, 0
  br i1 %.not41, label %34, label %32

32:                                               ; preds = %27
  %33 = call i32 @strcmp(ptr noundef nonnull dereferenceable(1) %30, ptr noundef nonnull dereferenceable(13) @.str.66) #13
  %.not42 = icmp eq i32 %33, 0
  br i1 %.not42, label %34, label %54

34:                                               ; preds = %32, %27
  %.val = load ptr, ptr %4, align 8, !tbaa !11
  %.val45 = load ptr, ptr %6, align 8, !tbaa !26
  switch i16 %22, label %.thread.sink.split [
    i16 2, label %35
    i16 3, label %37
    i16 4, label %39
    i16 5, label %42
  ]

35:                                               ; preds = %34
  %36 = call i32 @avio_rl16(ptr noundef %.val45) #12
  br label %44

37:                                               ; preds = %34
  %38 = call i32 @avio_rl32(ptr noundef %.val45) #12
  br label %44

39:                                               ; preds = %34
  %40 = call i64 @avio_rl64(ptr noundef %.val45) #12
  %41 = trunc i64 %40 to i32
  br label %44

42:                                               ; preds = %34
  %43 = call i32 @avio_rl16(ptr noundef %.val45) #12
  br label %44

44:                                               ; preds = %42, %39, %37, %35
  %.02.ph.i = phi i32 [ %43, %42 ], [ %41, %39 ], [ %38, %37 ], [ %36, %35 ]
  %45 = and i32 %14, 128
  %46 = icmp eq i32 %45, 0
  br i1 %46, label %47, label %asf_store_aspect_ratio.exit.thread

47:                                               ; preds = %44
  %48 = call i32 @strcmp(ptr noundef nonnull readonly dereferenceable(1) %30, ptr noundef nonnull dereferenceable(13) @.str.65) #13
  %.not.i = icmp eq i32 %48, 0
  %.mask = and i32 %14, 127
  %narrow51 = mul nuw nsw i32 %.mask, 48
  %.idx.i = zext nneg i32 %narrow51 to i64
  %49 = getelementptr i8, ptr %.val, i64 1184
  %50 = getelementptr i8, ptr %49, i64 %.idx.i
  br i1 %.not.i, label %51, label %52

51:                                               ; preds = %47
  store i32 %.02.ph.i, ptr %50, align 8, !tbaa !61
  br label %asf_store_aspect_ratio.exit.thread

52:                                               ; preds = %47
  %53 = getelementptr inbounds nuw i8, ptr %50, i64 4
  store i32 %.02.ph.i, ptr %53, align 4, !tbaa !62
  br label %asf_store_aspect_ratio.exit.thread

54:                                               ; preds = %32
  %55 = and i32 %14, 65535
  %56 = icmp samesign ult i32 %55, 128
  br i1 %56, label %57, label %asf_store_aspect_ratio.exit.thread

57:                                               ; preds = %54
  %.not43 = icmp eq i32 %55, 0
  %narrow = mul nuw nsw i32 %55, 48
  %58 = zext nneg i32 %narrow to i64
  %gep = getelementptr inbounds nuw i8, ptr %invariant.gep, i64 %58
  %59 = select i1 %.not43, ptr %11, ptr %gep
  %60 = call fastcc i32 @process_metadata(ptr noundef %0, ptr noundef nonnull %30, i16 noundef zeroext %24, i16 noundef zeroext %22, ptr noundef nonnull %59)
  %61 = icmp slt i32 %60, 0
  br i1 %61, label %.thread.sink.split, label %asf_store_aspect_ratio.exit.thread

.thread.sink.split:                               ; preds = %57, %34
  call void @av_freep(ptr noundef nonnull %3) #12
  br label %.thread

.thread:                                          ; preds = %12, %.thread.sink.split
  call void @llvm.lifetime.end.p0(i64 8, ptr nonnull %3) #12
  br label %.loopexit

asf_store_aspect_ratio.exit.thread:               ; preds = %44, %52, %51, %54, %57
  call void @av_freep(ptr noundef nonnull %3) #12
  call void @llvm.lifetime.end.p0(i64 8, ptr nonnull %3) #12
  %62 = add nuw nsw i32 %.03652, 1
  %exitcond.not = icmp eq i32 %62, %10
  br i1 %exitcond.not, label %.loopexit, label %12, !llvm.loop !173

.loopexit:                                        ; preds = %asf_store_aspect_ratio.exit.thread, %2, %.thread
  %63 = getelementptr inbounds nuw i8, ptr %5, i64 80
  %64 = load i64, ptr %63, align 8, !tbaa !32
  %65 = sub nsw i64 9223372036854775807, %64
  %66 = icmp ult i64 %8, %65
  br i1 %66, label %67, label %align_position.exit

67:                                               ; preds = %.loopexit
  %68 = call i64 @avio_seek(ptr noundef %7, i64 noundef 0, i32 noundef 1) #12
  %69 = add i64 %64, %8
  %.not.i46 = icmp eq i64 %68, %69
  br i1 %.not.i46, label %align_position.exit, label %70

70:                                               ; preds = %67
  %71 = call i64 @avio_seek(ptr noundef %7, i64 noundef %69, i32 noundef 0) #12
  br label %align_position.exit

align_position.exit:                              ; preds = %70, %67, %.loopexit, %.thread49
  %.2 = phi i32 [ -12, %.thread49 ], [ 0, %.loopexit ], [ 0, %67 ], [ 0, %70 ]
  ret i32 %.2
}